
DA2C_INT_NORMAL_A.elf:     file format elf32-avr

Sections:
Idx Name          Size      VMA       LMA       File off  Algn
  0 .data         00000000  00800100  00800100  0000016c  2**0
                  CONTENTS, ALLOC, LOAD, DATA
  1 .text         000000f8  00000000  00000000  00000074  2**1
                  CONTENTS, ALLOC, LOAD, READONLY, CODE
  2 .bss          00000002  00800100  00800100  0000016c  2**0
                  ALLOC
  3 .comment      00000030  00000000  00000000  0000016c  2**0
                  CONTENTS, READONLY
  4 .note.gnu.avr.deviceinfo 00000040  00000000  00000000  0000019c  2**2
                  CONTENTS, READONLY
  5 .debug_aranges 00000028  00000000  00000000  000001dc  2**0
                  CONTENTS, READONLY, DEBUGGING
  6 .debug_info   000006a5  00000000  00000000  00000204  2**0
                  CONTENTS, READONLY, DEBUGGING
  7 .debug_abbrev 00000624  00000000  00000000  000008a9  2**0
                  CONTENTS, READONLY, DEBUGGING
  8 .debug_line   00000248  00000000  00000000  00000ecd  2**0
                  CONTENTS, READONLY, DEBUGGING
  9 .debug_frame  00000040  00000000  00000000  00001118  2**2
                  CONTENTS, READONLY, DEBUGGING
 10 .debug_str    00000383  00000000  00000000  00001158  2**0
                  CONTENTS, READONLY, DEBUGGING
 11 .debug_loc    0000002f  00000000  00000000  000014db  2**0
                  CONTENTS, READONLY, DEBUGGING
 12 .debug_ranges 00000018  00000000  00000000  0000150a  2**0
                  CONTENTS, READONLY, DEBUGGING

Disassembly of section .text:

00000000 <__vectors>:
   0:	0c 94 34 00 	jmp	0x68	; 0x68 <__ctors_end>
   4:	0c 94 46 00 	jmp	0x8c	; 0x8c <__bad_interrupt>
   8:	0c 94 46 00 	jmp	0x8c	; 0x8c <__bad_interrupt>
   c:	0c 94 46 00 	jmp	0x8c	; 0x8c <__bad_interrupt>
  10:	0c 94 46 00 	jmp	0x8c	; 0x8c <__bad_interrupt>
  14:	0c 94 46 00 	jmp	0x8c	; 0x8c <__bad_interrupt>
  18:	0c 94 46 00 	jmp	0x8c	; 0x8c <__bad_interrupt>
  1c:	0c 94 46 00 	jmp	0x8c	; 0x8c <__bad_interrupt>
  20:	0c 94 46 00 	jmp	0x8c	; 0x8c <__bad_interrupt>
  24:	0c 94 46 00 	jmp	0x8c	; 0x8c <__bad_interrupt>
  28:	0c 94 46 00 	jmp	0x8c	; 0x8c <__bad_interrupt>
  2c:	0c 94 46 00 	jmp	0x8c	; 0x8c <__bad_interrupt>
  30:	0c 94 46 00 	jmp	0x8c	; 0x8c <__bad_interrupt>
  34:	0c 94 46 00 	jmp	0x8c	; 0x8c <__bad_interrupt>
  38:	0c 94 46 00 	jmp	0x8c	; 0x8c <__bad_interrupt>
  3c:	0c 94 46 00 	jmp	0x8c	; 0x8c <__bad_interrupt>
  40:	0c 94 55 00 	jmp	0xaa	; 0xaa <__vector_16>
  44:	0c 94 46 00 	jmp	0x8c	; 0x8c <__bad_interrupt>
  48:	0c 94 46 00 	jmp	0x8c	; 0x8c <__bad_interrupt>
  4c:	0c 94 46 00 	jmp	0x8c	; 0x8c <__bad_interrupt>
  50:	0c 94 46 00 	jmp	0x8c	; 0x8c <__bad_interrupt>
  54:	0c 94 46 00 	jmp	0x8c	; 0x8c <__bad_interrupt>
  58:	0c 94 46 00 	jmp	0x8c	; 0x8c <__bad_interrupt>
  5c:	0c 94 46 00 	jmp	0x8c	; 0x8c <__bad_interrupt>
  60:	0c 94 46 00 	jmp	0x8c	; 0x8c <__bad_interrupt>
  64:	0c 94 46 00 	jmp	0x8c	; 0x8c <__bad_interrupt>

00000068 <__ctors_end>:
  68:	11 24       	eor	r1, r1
  6a:	1f be       	out	0x3f, r1	; 63
  6c:	cf ef       	ldi	r28, 0xFF	; 255
  6e:	d8 e0       	ldi	r29, 0x08	; 8
  70:	de bf       	out	0x3e, r29	; 62
  72:	cd bf       	out	0x3d, r28	; 61

00000074 <__do_clear_bss>:
  74:	21 e0       	ldi	r18, 0x01	; 1
  76:	a0 e0       	ldi	r26, 0x00	; 0
  78:	b1 e0       	ldi	r27, 0x01	; 1
  7a:	01 c0       	rjmp	.+2      	; 0x7e <.do_clear_bss_start>

0000007c <.do_clear_bss_loop>:
  7c:	1d 92       	st	X+, r1

0000007e <.do_clear_bss_start>:
  7e:	a2 30       	cpi	r26, 0x02	; 2
  80:	b2 07       	cpc	r27, r18
  82:	e1 f7       	brne	.-8      	; 0x7c <.do_clear_bss_loop>
  84:	0e 94 48 00 	call	0x90	; 0x90 <main>
  88:	0c 94 7a 00 	jmp	0xf4	; 0xf4 <_exit>

0000008c <__bad_interrupt>:
  8c:	0c 94 00 00 	jmp	0	; 0x0 <__vectors>

00000090 <main>:
#include <avr/interrupt.h>

int Count = 0;
int main(void)
{
	DDRB |= (1<<DDB2);		//SETS DIRECTION OF PORT B2 AS OUTPUT
  90:	22 9a       	sbi	0x04, 2	; 4
	TIMSK0 |= (1<<TOIE0);	//THE INTERRUPT TO ACTIVATE WHEN TIMER 0 HAS OVERFLOW
  92:	ee e6       	ldi	r30, 0x6E	; 110
  94:	f0 e0       	ldi	r31, 0x00	; 0
  96:	80 81       	ld	r24, Z
  98:	81 60       	ori	r24, 0x01	; 1
  9a:	80 83       	st	Z, r24
	sei();					//SETS GLOBAL INTERRUPT
  9c:	78 94       	sei
	TCNT0 = 0x8F;			//SETS TCNT0 TO 0x8F
  9e:	8f e8       	ldi	r24, 0x8F	; 143
  a0:	86 bd       	out	0x26, r24	; 38
	TCCR0A = 0x00;			//SETS TIMMER 0 TO NORMAL MODE
  a2:	14 bc       	out	0x24, r1	; 36
	TCCR0B = 0x05;			//SETS PRESCALLER TO 1024
  a4:	85 e0       	ldi	r24, 0x05	; 5
  a6:	85 bd       	out	0x25, r24	; 37
  a8:	ff cf       	rjmp	.-2      	; 0xa8 <main+0x18>

000000aa <__vector_16>:
	while(1);
}
ISR (TIMER0_OVF_vect){		//TV0V INTERUPT SUBROUTINE
  aa:	1f 92       	push	r1
  ac:	0f 92       	push	r0
  ae:	0f b6       	in	r0, 0x3f	; 63
  b0:	0f 92       	push	r0
  b2:	11 24       	eor	r1, r1
	while(1){
		while((TIFR0 & 0x01) == 0)	//WHILE FLAG ISNT SET STAY HERE
		;
		TCNT0 = 0x8F;		//SET TCNT0 BACK TO 0x8F
  b4:	3f e8       	ldi	r19, 0x8F	; 143
		TIFR0 = 0x01;		//CLEAR FLAG
  b6:	21 e0       	ldi	r18, 0x01	; 1
	TCCR0B = 0x05;			//SETS PRESCALLER TO 1024
	while(1);
}
ISR (TIMER0_OVF_vect){		//TV0V INTERUPT SUBROUTINE
	while(1){
		while((TIFR0 & 0x01) == 0)	//WHILE FLAG ISNT SET STAY HERE
  b8:	a8 9b       	sbis	0x15, 0	; 21
  ba:	fe cf       	rjmp	.-4      	; 0xb8 <__vector_16+0xe>
		;
		TCNT0 = 0x8F;		//SET TCNT0 BACK TO 0x8F
  bc:	36 bd       	out	0x26, r19	; 38
		TIFR0 = 0x01;		//CLEAR FLAG
  be:	25 bb       	out	0x15, r18	; 21
		Count++;			//INCRIMENT TIMMER
  c0:	80 91 00 01 	lds	r24, 0x0100	; 0x800100 <_edata>
  c4:	90 91 01 01 	lds	r25, 0x0101	; 0x800101 <_edata+0x1>
  c8:	01 96       	adiw	r24, 0x01	; 1
  ca:	90 93 01 01 	sts	0x0101, r25	; 0x800101 <_edata+0x1>
  ce:	80 93 00 01 	sts	0x0100, r24	; 0x800100 <_edata>
		if(Count == 60)		//40% OF THE TIME DO THIS
  d2:	cc 97       	sbiw	r24, 0x3c	; 60
  d4:	11 f4       	brne	.+4      	; 0xda <__vector_16+0x30>
			PORTB &= (0<<PORTB2);	//SET WAVEFORM LOW
  d6:	85 b1       	in	r24, 0x05	; 5
  d8:	15 b8       	out	0x05, r1	; 5
		if(Count == 100){	//60% OF THE TIME DO THIS
  da:	80 91 00 01 	lds	r24, 0x0100	; 0x800100 <_edata>
  de:	90 91 01 01 	lds	r25, 0x0101	; 0x800101 <_edata+0x1>
  e2:	84 36       	cpi	r24, 0x64	; 100
  e4:	91 05       	cpc	r25, r1
  e6:	41 f7       	brne	.-48     	; 0xb8 <__vector_16+0xe>
			PORTB |= (1<<PORTB2);	//SET WAVEFORM HIGH
  e8:	2a 9a       	sbi	0x05, 2	; 5
			Count = 0;		//SET COUNTER BACK TO 0
  ea:	10 92 01 01 	sts	0x0101, r1	; 0x800101 <_edata+0x1>
  ee:	10 92 00 01 	sts	0x0100, r1	; 0x800100 <_edata>
  f2:	e2 cf       	rjmp	.-60     	; 0xb8 <__vector_16+0xe>

000000f4 <_exit>:
  f4:	f8 94       	cli

000000f6 <__stop_program>:
  f6:	ff cf       	rjmp	.-2      	; 0xf6 <__stop_program>
